target datalayout = "e-m:e-p270:32:32-p271:32:32-p272:64:64-i64:64-i128:128-f80:128-n8:16:32:64-S128"
target triple = "x86_64-pc-linux-gnu"

@.str.22 = private unnamed_addr constant [2 x i8] c"\0A\00", align 1
@.str.77 = private unnamed_addr constant [28 x i8] c"    write_rtlil [filename]\0A\00", align 1
@.str.78 = private unnamed_addr constant [76 x i8] c"Write the current design to an RTLIL file. (RTLIL is a text representation\0A\00", align 1
@.str.79 = private unnamed_addr constant [42 x i8] c"of a design in yosys's internal format.)\0A\00", align 1
@.str.80 = private unnamed_addr constant [15 x i8] c"    -selected\0A\00", align 1
@.str.81 = private unnamed_addr constant [50 x i8] c"        only write selected parts of the design.\0A\00", align 1

; Function Attrs: mustprogress uwtable
define internal void @_ZN12_GLOBAL__N_112RTLILBackend4helpEv(ptr noundef nonnull align 8 dereferenceable(136) %0) unnamed_addr #4 align 2 {
  %2 = alloca ptr, align 8
  store ptr %0, ptr %2, align 8, !tbaa !293
  call void (ptr, ...) @_ZN5Yosys3logEPKcz(ptr noundef @.str.22)
  call void (ptr, ...) @_ZN5Yosys3logEPKcz(ptr noundef @.str.77)
  call void (ptr, ...) @_ZN5Yosys3logEPKcz(ptr noundef @.str.22)
  call void (ptr, ...) @_ZN5Yosys3logEPKcz(ptr noundef @.str.78)
  call void (ptr, ...) @_ZN5Yosys3logEPKcz(ptr noundef @.str.79)
  call void (ptr, ...) @_ZN5Yosys3logEPKcz(ptr noundef @.str.22)
  call void (ptr, ...) @_ZN5Yosys3logEPKcz(ptr noundef @.str.80)
  call void (ptr, ...) @_ZN5Yosys3logEPKcz(ptr noundef @.str.81)
  call void (ptr, ...) @_ZN5Yosys3logEPKcz(ptr noundef @.str.22)
  ret void
}